target datalayout = "e-m:e-p270:32:32-p271:32:32-p272:64:64-i64:64-i128:128-f80:128-n8:16:32:64-S128"
target triple = "x86_64-pc-linux-gnu"

%struct.PJconsts = type { ptr, ptr, ptr, ptr, ptr, ptr, ptr, ptr, ptr, ptr, ptr, ptr, i32, ptr, ptr, ptr, ptr, ptr, ptr, ptr, ptr, double, double, double, double, double, double, double, double, double, double, double, double, double, double, double, double, double, double, double, double, double, double, i32, i32, i32, i32, i32, i32, i32, i32, i32, i32, i32, ptr, ptr, ptr, ptr, ptr, ptr, double, double, double, double, double, double, double, double, double, double, double, i32, [7 x double], i32, ptr, ptr, double, double, i32, [4 x i8], %"class.std::shared_ptr", i8, double, i8, %"class.std::__cxx11::basic_string", %"class.std::__cxx11::basic_string", %"class.std::__cxx11::basic_string", i8, %"class.std::vector", i32, %"class.std::vector.3", i32, i8, i8, i8, ptr }
%"class.std::shared_ptr" = type { %"class.std::__shared_ptr" }
%"class.std::__shared_ptr" = type { ptr, %"class.std::__shared_count" }
%"class.std::__shared_count" = type { ptr }
%"class.std::__cxx11::basic_string" = type { %"struct.std::__cxx11::basic_string<char>::_Alloc_hider", i64, %union.anon }
%"struct.std::__cxx11::basic_string<char>::_Alloc_hider" = type { ptr }
%union.anon = type { i64, [8 x i8] }
%"class.std::vector" = type { %"struct.std::_Vector_base" }
%"struct.std::_Vector_base" = type { %"struct.std::_Vector_base<osgeo::proj::operation::GridDescription, std::allocator<osgeo::proj::operation::GridDescription>>::_Vector_impl" }
%"struct.std::_Vector_base<osgeo::proj::operation::GridDescription, std::allocator<osgeo::proj::operation::GridDescription>>::_Vector_impl" = type { %"struct.std::_Vector_base<osgeo::proj::operation::GridDescription, std::allocator<osgeo::proj::operation::GridDescription>>::_Vector_impl_data" }
%"struct.std::_Vector_base<osgeo::proj::operation::GridDescription, std::allocator<osgeo::proj::operation::GridDescription>>::_Vector_impl_data" = type { ptr, ptr, ptr }
%"class.std::vector.3" = type { %"struct.std::_Vector_base.4" }
%"struct.std::_Vector_base.4" = type { %"struct.std::_Vector_base<PJCoordOperation, std::allocator<PJCoordOperation>>::_Vector_impl" }
%"struct.std::_Vector_base<PJCoordOperation, std::allocator<PJCoordOperation>>::_Vector_impl" = type { %"struct.std::_Vector_base<PJCoordOperation, std::allocator<PJCoordOperation>>::_Vector_impl_data" }
%"struct.std::_Vector_base<PJCoordOperation, std::allocator<PJCoordOperation>>::_Vector_impl_data" = type { ptr, ptr, ptr }
%struct.PJ_LP = type { double, double }
%struct.PJ_XY = type { double, double }

; Function Attrs: mustprogress uwtable
define internal { double, double } @_ZL14eck4_s_inverse5PJ_XYP8PJconsts(double %0, double %1, ptr noundef %2) #0 {
  %4 = alloca %struct.PJ_LP, align 8
  %5 = alloca %struct.PJ_XY, align 8
  %6 = alloca ptr, align 8
  %7 = alloca double, align 8
  %8 = alloca double, align 8
  %9 = alloca double, align 8
  %10 = alloca double, align 8
  %11 = alloca double, align 8
  %12 = alloca double, align 8
  %13 = alloca i32, align 4
  %14 = getelementptr inbounds nuw { double, double }, ptr %5, i32 0, i32 0
  store double %0, ptr %14, align 8
  %15 = getelementptr inbounds nuw { double, double }, ptr %5, i32 0, i32 1
  store double %1, ptr %15, align 8
  store ptr %2, ptr %6, align 8, !tbaa !3
  call void @llvm.memset.p0.i64(ptr align 8 %4, i8 0, i64 16, i1 false)
  call void @llvm.lifetime.start.p0(i64 8, ptr %7) #7
  %16 = getelementptr inbounds nuw %struct.PJ_XY, ptr %5, i32 0, i32 1
  %17 = load double, ptr %16, align 8, !tbaa !44
  %18 = fmul double %17, 0x3FE81FA5F1588088
  store double %18, ptr %7, align 8, !tbaa !46
  call void @llvm.lifetime.start.p0(i64 8, ptr %8) #7
  %19 = load double, ptr %7, align 8, !tbaa !46
  %20 = call double @llvm.fabs.f64(double %19)
  %21 = fsub double 1.000000e+00, %20
  store double %21, ptr %8, align 8, !tbaa !46
  %22 = load double, ptr %8, align 8, !tbaa !46
  %23 = fcmp oge double %22, 0.000000e+00
  br i1 %23, label %24, label %36

24:                                               ; preds = %3
  %25 = load double, ptr %8, align 8, !tbaa !46
  %26 = fcmp ole double %25, 0x3D719799812DEA11
  br i1 %26, label %27, label %36

27:                                               ; preds = %24
  %28 = getelementptr inbounds nuw %struct.PJ_XY, ptr %5, i32 0, i32 0
  %29 = load double, ptr %28, align 8, !tbaa !47
  %30 = fdiv double %29, 0x3FDB05F35F5E99C0
  %31 = getelementptr inbounds nuw %struct.PJ_LP, ptr %4, i32 0, i32 0
  store double %30, ptr %31, align 8, !tbaa !48
  %32 = load double, ptr %7, align 8, !tbaa !46
  %33 = fcmp ogt double %32, 0.000000e+00
  %34 = select i1 %33, double 0x3FF921FB54442D18, double 0xBFF921FB54442D18
  %35 = getelementptr inbounds nuw %struct.PJ_LP, ptr %4, i32 0, i32 1
  store double %34, ptr %35, align 8, !tbaa !50
  br label %63

36:                                               ; preds = %24, %3
  call void @llvm.lifetime.start.p0(i64 8, ptr %9) #7
  %37 = load ptr, ptr %6, align 8, !tbaa !3
  %38 = getelementptr inbounds nuw %struct.PJconsts, ptr %37, i32 0, i32 0
  %39 = load ptr, ptr %38, align 8, !tbaa !51
  %40 = load double, ptr %7, align 8, !tbaa !46
  %41 = call noundef double @_Z5aasinP6pj_ctxd(ptr noundef %39, double noundef %40)
  store double %41, ptr %9, align 8, !tbaa !46
  call void @llvm.lifetime.start.p0(i64 8, ptr %10) #7
  %42 = load double, ptr %9, align 8, !tbaa !46
  %43 = call double @cos(double noundef %42) #7, !tbaa !52
  store double %43, ptr %10, align 8, !tbaa !46
  %44 = getelementptr inbounds nuw %struct.PJ_XY, ptr %5, i32 0, i32 0
  %45 = load double, ptr %44, align 8, !tbaa !47
  %46 = load double, ptr %10, align 8, !tbaa !46
  %47 = fadd double 1.000000e+00, %46
  %48 = fmul double 0x3FDB05F35F5E99C0, %47
  %49 = fdiv double %45, %48
  %50 = getelementptr inbounds nuw %struct.PJ_LP, ptr %4, i32 0, i32 0
  store double %49, ptr %50, align 8, !tbaa !48
  call void @llvm.lifetime.start.p0(i64 8, ptr %11) #7
  %51 = load double, ptr %9, align 8, !tbaa !46
  %52 = load double, ptr %7, align 8, !tbaa !46
  %53 = load double, ptr %10, align 8, !tbaa !46
  %54 = fadd double %53, 2.000000e+00
  %55 = call double @llvm.fmuladd.f64(double %52, double %54, double %51)
  %56 = fmul double %55, 0x3FD1EC550F5B2E78
  store double %56, ptr %11, align 8, !tbaa !46
  %57 = load ptr, ptr %6, align 8, !tbaa !3
  %58 = getelementptr inbounds nuw %struct.PJconsts, ptr %57, i32 0, i32 0
  %59 = load ptr, ptr %58, align 8, !tbaa !51
  %60 = load double, ptr %11, align 8, !tbaa !46
  %61 = call noundef double @_Z5aasinP6pj_ctxd(ptr noundef %59, double noundef %60)
  %62 = getelementptr inbounds nuw %struct.PJ_LP, ptr %4, i32 0, i32 1
  store double %61, ptr %62, align 8, !tbaa !50
  call void @llvm.lifetime.end.p0(i64 8, ptr %11) #7
  call void @llvm.lifetime.end.p0(i64 8, ptr %10) #7
  call void @llvm.lifetime.end.p0(i64 8, ptr %9) #7
  br label %63

63:                                               ; preds = %36, %27
  %64 = load ptr, ptr %6, align 8, !tbaa !3
  %65 = getelementptr inbounds nuw %struct.PJconsts, ptr %64, i32 0, i32 43
  %66 = load i32, ptr %65, align 8, !tbaa !53
  %67 = icmp ne i32 %66, 0
  br i1 %67, label %92, label %68

68:                                               ; preds = %63
  call void @llvm.lifetime.start.p0(i64 8, ptr %12) #7
  %69 = getelementptr inbounds nuw %struct.PJ_LP, ptr %4, i32 0, i32 0
  %70 = load double, ptr %69, align 8, !tbaa !48
  %71 = call double @llvm.fabs.f64(double %70)
  %72 = fsub double %71, 0x400921FB54442D18
  store double %72, ptr %12, align 8, !tbaa !46
  %73 = load double, ptr %12, align 8, !tbaa !46
  %74 = fcmp ogt double %73, 0.000000e+00
  br i1 %74, label %75, label %88

75:                                               ; preds = %68
  %76 = load double, ptr %12, align 8, !tbaa !46
  %77 = fcmp ogt double %76, 1.000000e-10
  br i1 %77, label %78, label %81

78:                                               ; preds = %75
  %79 = load ptr, ptr %6, align 8, !tbaa !3
  %80 = call i32 @proj_errno_set(ptr noundef %79, i32 noundef 2050)
  store i32 1, ptr %13, align 4
  br label %89

81:                                               ; preds = %75
  %82 = getelementptr inbounds nuw %struct.PJ_LP, ptr %4, i32 0, i32 0
  %83 = load double, ptr %82, align 8, !tbaa !48
  %84 = fcmp ogt double %83, 0.000000e+00
  %85 = select i1 %84, double 0x400921FB54442D18, double 0xC00921FB54442D18
  %86 = getelementptr inbounds nuw %struct.PJ_LP, ptr %4, i32 0, i32 0
  store double %85, ptr %86, align 8, !tbaa !48
  br label %87

87:                                               ; preds = %81
  br label %88

88:                                               ; preds = %87, %68
  store i32 0, ptr %13, align 4
  br label %89

89:                                               ; preds = %88, %78
  call void @llvm.lifetime.end.p0(i64 8, ptr %12) #7
  %90 = load i32, ptr %13, align 4
  switch i32 %90, label %93 [
    i32 0, label %91
  ]

91:                                               ; preds = %89
  br label %92

92:                                               ; preds = %91, %63
  store i32 1, ptr %13, align 4
  br label %93

93:                                               ; preds = %92, %89
  call void @llvm.lifetime.end.p0(i64 8, ptr %8) #7
  call void @llvm.lifetime.end.p0(i64 8, ptr %7) #7
  %94 = load { double, double }, ptr %4, align 8
  ret { double, double } %94
}