; Function Attrs: mustprogress uwtable
define internal { double, double } @_ZL14eck4_s_inverse5PJ_XYP8PJconsts(double %0, double %1, ptr noundef %2) #0 {
  %4 = fmul double %1, 0x3FE81FA5F1588088
  %5 = tail call double @llvm.fabs.f64(double %4)
  %6 = fsub double 1.000000e+00, %5
  %7 = fcmp oge double %6, 0.000000e+00
  %8 = fcmp ole double %6, 0x3D719799812DEA11
  %or.cond = and i1 %7, %8
  br i1 %or.cond, label %9, label %13

9:                                                ; preds = %3
  %10 = fdiv double %0, 0x3FDB05F35F5E99C0
  %11 = fcmp ogt double %4, 0.000000e+00
  %12 = select i1 %11, double 0x3FF921FB54442D18, double 0xBFF921FB54442D18
  br label %25

13:                                               ; preds = %3
  %14 = load ptr, ptr %2, align 8, !tbaa !43
  %15 = tail call noundef double @_Z5aasinP6pj_ctxd(ptr noundef %14, double noundef %4)
  %16 = tail call double @cos(double noundef %15) #6, !tbaa !44
  %17 = fadd double %16, 1.000000e+00
  %18 = fmul double %17, 0x3FDB05F35F5E99C0
  %19 = fdiv double %0, %18
  %20 = fadd double %16, 2.000000e+00
  %21 = tail call double @llvm.fmuladd.f64(double %4, double %20, double %15)
  %22 = fmul double %21, 0x3FD1EC550F5B2E78
  %23 = load ptr, ptr %2, align 8, !tbaa !43
  %24 = tail call noundef double @_Z5aasinP6pj_ctxd(ptr noundef %23, double noundef %22)
  br label %25

25:                                               ; preds = %13, %9
  %.sroa.7.0 = phi double [ %12, %9 ], [ %24, %13 ]
  %.sroa.019.0 = phi double [ %10, %9 ], [ %19, %13 ]
  %26 = getelementptr inbounds nuw i8, ptr %2, i64 344
  %27 = load i32, ptr %26, align 8, !tbaa !45
  %.not = icmp eq i32 %27, 0
  br i1 %.not, label %28, label %39

28:                                               ; preds = %25
  %29 = tail call double @llvm.fabs.f64(double %.sroa.019.0)
  %30 = fadd double %29, 0xC00921FB54442D18
  %31 = fcmp ogt double %30, 0.000000e+00
  br i1 %31, label %32, label %39

32:                                               ; preds = %28
  %33 = fcmp ogt double %30, 1.000000e-10
  br i1 %33, label %34, label %36

34:                                               ; preds = %32
  %35 = tail call i32 @proj_errno_set(ptr noundef nonnull %2, i32 noundef 2050)
  br label %39

36:                                               ; preds = %32
  %37 = fcmp ogt double %.sroa.019.0, 0.000000e+00
  %38 = select i1 %37, double 0x400921FB54442D18, double 0xC00921FB54442D18
  br label %39

39:                                               ; preds = %34, %36, %28, %25
  %.sroa.019.4 = phi double [ %.sroa.019.0, %25 ], [ %.sroa.019.0, %34 ], [ %38, %36 ], [ %.sroa.019.0, %28 ]
  %.fca.0.insert = insertvalue { double, double } poison, double %.sroa.019.4, 0
  %.fca.1.insert = insertvalue { double, double } %.fca.0.insert, double %.sroa.7.0, 1
  ret { double, double } %.fca.1.insert
}